; Function Attrs: mustprogress uwtable
define hidden void @_ZN4cvc58internal6theory6Theory18setDecisionManagerEPNS1_15DecisionManagerE(ptr nocapture noundef nonnull readonly align 8 dereferenceable(408) %this, ptr noundef %dm) local_unnamed_addr #3 align 2 {
entry:
  %d_inferManager = getelementptr inbounds i8, ptr %this, i64 184
  %0 = load ptr, ptr %d_inferManager, align 8
  %cmp.not = icmp eq ptr %0, null
  br i1 %cmp.not, label %if.end, label %if.then

if.then:                                          ; preds = %entry
  tail call void @_ZN4cvc58internal6theory22TheoryInferenceManager18setDecisionManagerEPNS1_15DecisionManagerE(ptr noundef nonnull align 8 dereferenceable(256) %0, ptr noundef %dm)
  br label %if.end

if.end:                                           ; preds = %if.then, %entry
  ret void
}